<?xml version="1.0"?>
<?xml-stylesheet type="text/xsl" href="pdml2html.xsl"?>
<!-- You can find pdml2html.xsl in /home/vagrant/tmp/wireshark-1.12.6 or at http://anonsvn.wireshark.org/trunk/wireshark/pdml2html.xsl. -->
<pdml version="0" creator="wireshark/1.12.6" time="Mon Jul 27 07:59:00 2015" capture_file="./tmp.txt">
<packet>
  <proto name="geninfo" pos="0" showname="General information" size="210">
    <field name="num" pos="0" show="1" showname="Number" value="1" size="210"/>
    <field name="len" pos="0" show="210" showname="Frame Length" value="d2" size="210"/>
    <field name="caplen" pos="0" show="210" showname="Captured Length" value="d2" size="210"/>
    <field name="timestamp" pos="0" show="Jul 22, 2015 11:45:55.499010000 UTC" showname="Captured Time" value="1437565555.499010000" size="210"/>
  </proto>
  <proto name="frame" showname="Frame 1: 210 bytes on wire (1680 bits), 210 bytes captured (1680 bits)" size="210" pos="0">
    <field name="frame.encap_type" showname="Encapsulation type: Ethernet (1)" size="0" pos="0" show="1"/>
    <field name="frame.time" showname="Arrival Time: Jul 22, 2015 11:45:55.499010000 UTC" size="0" pos="0" show="Jul 22, 2015 11:45:55.499010000 UTC"/>
    <field name="frame.offset_shift" showname="Time shift for this packet: 0.000000000 seconds" size="0" pos="0" show="0.000000000"/>
    <field name="frame.time_epoch" showname="Epoch Time: 1437565555.499010000 seconds" size="0" pos="0" show="1437565555.499010000"/>
    <field name="frame.time_delta" showname="Time delta from previous captured frame: 0.000000000 seconds" size="0" pos="0" show="0.000000000"/>
    <field name="frame.time_delta_displayed" showname="Time delta from previous displayed frame: 0.000000000 seconds" size="0" pos="0" show="0.000000000"/>
    <field name="frame.time_relative" showname="Time since reference or first frame: 0.000000000 seconds" size="0" pos="0" show="0.000000000"/>
    <field name="frame.number" showname="Frame Number: 1" size="0" pos="0" show="1"/>
    <field name="frame.len" showname="Frame Length: 210 bytes (1680 bits)" size="0" pos="0" show="210"/>
    <field name="frame.cap_len" showname="Capture Length: 210 bytes (1680 bits)" size="0" pos="0" show="210"/>
    <field name="frame.marked" showname="Frame is marked: False" size="0" pos="0" show="0"/>
    <field name="frame.ignored" showname="Frame is ignored: False" size="0" pos="0" show="0"/>
    <field name="frame.protocols" showname="Protocols in frame: eth:ethertype:ip:tcp:giop" size="0" pos="0" show="eth:ethertype:ip:tcp:giop"/>
  </proto>
  <proto name="eth" showname="Ethernet II, Src: 00:00:00_00:00:00 (00:00:00:00:00:00), Dst: 00:00:00_00:00:00 (00:00:00:00:00:00)" size="14" pos="0">
    <field name="eth.dst" showname="Destination: 00:00:00_00:00:00 (00:00:00:00:00:00)" size="6" pos="0" show="00:00:00:00:00:00" value="000000000000">
      <field name="eth.dst_resolved" showname="Destination (resolved): 00:00:00_00:00:00" hide="yes" size="6" pos="0" show="00:00:00_00:00:00" value="000000000000"/>
      <field name="eth.addr" showname="Address: 00:00:00_00:00:00 (00:00:00:00:00:00)" size="6" pos="0" show="00:00:00:00:00:00" value="000000000000"/>
      <field name="eth.addr_resolved" showname="Address (resolved): 00:00:00_00:00:00" hide="yes" size="6" pos="0" show="00:00:00_00:00:00" value="000000000000"/>
      <field name="eth.lg" showname=".... ..0. .... .... .... .... = LG bit: Globally unique address (factory default)" size="3" pos="0" show="0" value="0" unmaskedvalue="000000"/>
      <field name="eth.ig" showname=".... ...0 .... .... .... .... = IG bit: Individual address (unicast)" size="3" pos="0" show="0" value="0" unmaskedvalue="000000"/>
    </field>
    <field name="eth.src" showname="Source: 00:00:00_00:00:00 (00:00:00:00:00:00)" size="6" pos="6" show="00:00:00:00:00:00" value="000000000000">
      <field name="eth.src_resolved" showname="Source (resolved): 00:00:00_00:00:00" hide="yes" size="6" pos="6" show="00:00:00_00:00:00" value="000000000000"/>
      <field name="eth.addr" showname="Address: 00:00:00_00:00:00 (00:00:00:00:00:00)" size="6" pos="6" show="00:00:00:00:00:00" value="000000000000"/>
      <field name="eth.addr_resolved" showname="Address (resolved): 00:00:00_00:00:00" hide="yes" size="6" pos="6" show="00:00:00_00:00:00" value="000000000000"/>
      <field name="eth.lg" showname=".... ..0. .... .... .... .... = LG bit: Globally unique address (factory default)" size="3" pos="6" show="0" value="0" unmaskedvalue="000000"/>
      <field name="eth.ig" showname=".... ...0 .... .... .... .... = IG bit: Individual address (unicast)" size="3" pos="6" show="0" value="0" unmaskedvalue="000000"/>
    </field>
    <field name="eth.type" showname="Type: IP (0x0800)" size="2" pos="12" show="2048" value="0800"/>
  </proto>
  <proto name="ip" showname="Internet Protocol Version 4, Src: 10.0.2.15 (10.0.2.15), Dst: 10.0.2.15 (10.0.2.15)" size="20" pos="14">
    <field name="ip.version" showname="Version: 4" size="1" pos="14" show="4" value="45"/>
    <field name="ip.hdr_len" showname="Header Length: 20 bytes" size="1" pos="14" show="20" value="45"/>
    <field name="ip.dsfield" showname="Differentiated Services Field: 0x00 (DSCP 0x00: Default; ECN: 0x00: Not-ECT (Not ECN-Capable Transport))" size="1" pos="15" show="0" value="00">
      <field name="ip.dsfield.dscp" showname="0000 00.. = Differentiated Services Codepoint: Default (0x00)" size="1" pos="15" show="0" value="0" unmaskedvalue="00"/>
      <field name="ip.dsfield.ecn" showname=".... ..00 = Explicit Congestion Notification: Not-ECT (Not ECN-Capable Transport) (0x00)" size="1" pos="15" show="0" value="0" unmaskedvalue="00"/>
    </field>
    <field name="ip.len" showname="Total Length: 196" size="2" pos="16" show="196" value="00c4"/>
    <field name="ip.id" showname="Identification: 0x5b10 (23312)" size="2" pos="18" show="23312" value="5b10"/>
    <field name="ip.flags" showname="Flags: 0x02 (Don&apos;t Fragment)" size="1" pos="20" show="2" value="40">
      <field name="ip.flags.rb" showname="0... .... = Reserved bit: Not set" size="1" pos="20" show="0" value="40"/>
      <field name="ip.flags.df" showname=".1.. .... = Don&apos;t fragment: Set" size="1" pos="20" show="1" value="40"/>
      <field name="ip.flags.mf" showname="..0. .... = More fragments: Not set" size="1" pos="20" show="0" value="40"/>
    </field>
    <field name="ip.frag_offset" showname="Fragment offset: 0" size="2" pos="20" show="0" value="4000"/>
    <field name="ip.ttl" showname="Time to live: 64" size="1" pos="22" show="64" value="40"/>
    <field name="ip.proto" showname="Protocol: TCP (6)" size="1" pos="23" show="6" value="06"/>
    <field name="ip.checksum" showname="Header checksum: 0xc706 [validation disabled]" size="2" pos="24" show="50950" value="c706">
      <field name="ip.checksum_good" showname="Good: False" size="2" pos="24" show="0" value="c706"/>
      <field name="ip.checksum_bad" showname="Bad: False" size="2" pos="24" show="0" value="c706"/>
    </field>
    <field name="ip.src" showname="Source: 10.0.2.15 (10.0.2.15)" size="4" pos="26" show="10.0.2.15" value="0a00020f"/>
    <field name="ip.addr" showname="Source or Destination Address: 10.0.2.15 (10.0.2.15)" hide="yes" size="4" pos="26" show="10.0.2.15" value="0a00020f"/>
    <field name="ip.src_host" showname="Source Host: 10.0.2.15" hide="yes" size="4" pos="26" show="10.0.2.15" value="0a00020f"/>
    <field name="ip.host" showname="Source or Destination Host: 10.0.2.15" hide="yes" size="4" pos="26" show="10.0.2.15" value="0a00020f"/>
    <field name="ip.dst" showname="Destination: 10.0.2.15 (10.0.2.15)" size="4" pos="30" show="10.0.2.15" value="0a00020f"/>
    <field name="ip.addr" showname="Source or Destination Address: 10.0.2.15 (10.0.2.15)" hide="yes" size="4" pos="30" show="10.0.2.15" value="0a00020f"/>
    <field name="ip.dst_host" showname="Destination Host: 10.0.2.15" hide="yes" size="4" pos="30" show="10.0.2.15" value="0a00020f"/>
    <field name="ip.host" showname="Source or Destination Host: 10.0.2.15" hide="yes" size="4" pos="30" show="10.0.2.15" value="0a00020f"/>
  </proto>
  <proto name="tcp" showname="Transmission Control Protocol, Src Port: 53953 (53953), Dst Port: 46420 (46420), Seq: 1, Ack: 1, Len: 144" size="32" pos="34">
    <field name="tcp.srcport" showname="Source Port: 53953 (53953)" size="2" pos="34" show="53953" value="d2c1"/>
    <field name="tcp.dstport" showname="Destination Port: 46420 (46420)" size="2" pos="36" show="46420" value="b554"/>
    <field name="tcp.port" showname="Source or Destination Port: 53953" hide="yes" size="2" pos="34" show="53953" value="d2c1"/>
    <field name="tcp.port" showname="Source or Destination Port: 46420" hide="yes" size="2" pos="36" show="46420" value="b554"/>
    <field name="tcp.stream" showname="Stream index: 0" size="0" pos="34" show="0"/>
    <field name="tcp.len" showname="TCP Segment Len: 144" size="1" pos="46" show="144" value="80"/>
    <field name="tcp.seq" showname="Sequence number: 1    (relative sequence number)" size="4" pos="38" show="1" value="54de0656"/>
    <field name="tcp.nxtseq" showname="Next sequence number: 145    (relative sequence number)" size="0" pos="34" show="145"/>
    <field name="tcp.ack" showname="Acknowledgment number: 1    (relative ack number)" size="4" pos="42" show="1" value="cda034d0"/>
    <field name="tcp.hdr_len" showname="Header Length: 32 bytes" size="1" pos="46" show="32" value="80"/>
    <field name="tcp.flags" showname=".... 0000 0001 1000 = Flags: 0x018 (PSH, ACK)" size="2" pos="46" show="24" value="18" unmaskedvalue="8018">
      <field name="tcp.flags.res" showname="000. .... .... = Reserved: Not set" size="1" pos="46" show="0" value="0" unmaskedvalue="80"/>
      <field name="tcp.flags.ns" showname="...0 .... .... = Nonce: Not set" size="1" pos="46" show="0" value="0" unmaskedvalue="80"/>
      <field name="tcp.flags.cwr" showname=".... 0... .... = Congestion Window Reduced (CWR): Not set" size="1" pos="47" show="0" value="0" unmaskedvalue="18"/>
      <field name="tcp.flags.ecn" showname=".... .0.. .... = ECN-Echo: Not set" size="1" pos="47" show="0" value="0" unmaskedvalue="18"/>
      <field name="tcp.flags.urg" showname=".... ..0. .... = Urgent: Not set" size="1" pos="47" show="0" value="0" unmaskedvalue="18"/>
      <field name="tcp.flags.ack" showname=".... ...1 .... = Acknowledgment: Set" size="1" pos="47" show="1" value="1" unmaskedvalue="18"/>
      <field name="tcp.flags.push" showname=".... .... 1... = Push: Set" size="1" pos="47" show="1" value="1" unmaskedvalue="18"/>
      <field name="tcp.flags.reset" showname=".... .... .0.. = Reset: Not set" size="1" pos="47" show="0" value="0" unmaskedvalue="18"/>
      <field name="tcp.flags.syn" showname=".... .... ..0. = Syn: Not set" size="1" pos="47" show="0" value="0" unmaskedvalue="18"/>
      <field name="tcp.flags.fin" showname=".... .... ...0 = Fin: Not set" size="1" pos="47" show="0" value="0" unmaskedvalue="18"/>
    </field>
    <field name="tcp.window_size_value" showname="Window size value: 350" size="2" pos="48" show="350" value="015e"/>
    <field name="tcp.window_size" showname="Calculated window size: 350" size="2" pos="48" show="350" value="015e"/>
    <field name="tcp.window_size_scalefactor" showname="Window size scaling factor: -1 (unknown)" size="2" pos="48" show="-1" value="015e"/>
    <field name="tcp.checksum" showname="Checksum: 0x18d4 [validation disabled]" size="2" pos="50" show="6356" value="18d4">
      <field name="tcp.checksum_good" showname="Good Checksum: False" size="2" pos="50" show="0" value="18d4"/>
      <field name="tcp.checksum_bad" showname="Bad Checksum: False" size="2" pos="50" show="0" value="18d4"/>
    </field>
    <field name="tcp.urgent_pointer" showname="Urgent pointer: 0" size="2" pos="52" show="0" value="0000"/>
    <field name="tcp.options" showname="Options: (12 bytes), No-Operation (NOP), No-Operation (NOP), Timestamps" size="12" pos="54" show="01:01:08:0a:00:36:79:00:00:34:a1:b7" value="0101080a003679000034a1b7">
      <field name="" show="No-Operation (NOP)" size="1" pos="54" value="01">
        <field name="tcp.options.type" showname="Type: 1" size="1" pos="54" show="1" value="01">
          <field name="tcp.options.type.copy" showname="0... .... = Copy on fragmentation: No" size="1" pos="54" show="0" value="0" unmaskedvalue="01"/>
          <field name="tcp.options.type.class" showname=".00. .... = Class: Control (0)" size="1" pos="54" show="0" value="0" unmaskedvalue="01"/>
          <field name="tcp.options.type.number" showname="...0 0001 = Number: No-Operation (NOP) (1)" size="1" pos="54" show="1" value="1" unmaskedvalue="01"/>
        </field>
      </field>
      <field name="" show="No-Operation (NOP)" size="1" pos="55" value="01">
        <field name="tcp.options.type" showname="Type: 1" size="1" pos="55" show="1" value="01">
          <field name="tcp.options.type.copy" showname="0... .... = Copy on fragmentation: No" size="1" pos="55" show="0" value="0" unmaskedvalue="01"/>
          <field name="tcp.options.type.class" showname=".00. .... = Class: Control (0)" size="1" pos="55" show="0" value="0" unmaskedvalue="01"/>
          <field name="tcp.options.type.number" showname="...0 0001 = Number: No-Operation (NOP) (1)" size="1" pos="55" show="1" value="1" unmaskedvalue="01"/>
        </field>
      </field>
      <field name="" show="Timestamps: TSval 3569920, TSecr 3449271" size="10" pos="56" value="080a003679000034a1b7">
        <field name="tcp.option_kind" showname="Kind: Time Stamp Option (8)" size="1" pos="56" show="8" value="08"/>
        <field name="tcp.option_len" showname="Length: 10" size="1" pos="57" show="10" value="0a"/>
        <field name="tcp.options.timestamp.tsval" showname="Timestamp value: 3569920" size="4" pos="58" show="3569920" value="00367900"/>
        <field name="tcp.options.timestamp.tsecr" showname="Timestamp echo reply: 3449271" size="4" pos="62" show="3449271" value="0034a1b7"/>
      </field>
    </field>
    <field name="tcp.analysis" showname="SEQ/ACK analysis" size="0" pos="34" show="" value="">
      <field name="tcp.analysis.bytes_in_flight" showname="Bytes in flight: 144" size="0" pos="34" show="144"/>
    </field>
    <field name="tcp.pdu.size" showname="PDU Size: 144" size="144" pos="66" show="144" value="47494f50010200000000008400000007030000000000000200000031afabcb0000000020b50d0b4400000001000000000000000100000008526f6f74504f410000000008000000010000000014636500000000046164640000000003000000110000000200027200000000010000000c0000000000010001000101094e454f0000000002001400010000000500000005"/>
  </proto>
  <proto name="giop" showname="General Inter-ORB Protocol" size="144" pos="66">
    <field name="" show="GIOP Header" size="12" pos="66" value="47494f500102000000000084">
      <field name="giop.magic" showname="Magic: GIOP" size="4" pos="66" show="GIOP" value="47494f50"/>
      <field name="" show="Version: 1.2" size="2" pos="70" value="0102">
        <field name="giop.major_version" showname="Major Version: 1" size="1" pos="70" show="1" value="01"/>
        <field name="giop.minor_version" showname="Minor Version: 2" size="1" pos="71" show="2" value="02"/>
        <field name="giop.flags" showname="Message Flags: 0x00, (Big Endian)" size="1" pos="72" show="0" value="00">
          <field name="giop.flags.ziop_enabled" showname=".... 0... = ZIOP Enabled: False" size="1" pos="72" show="0" value="0" unmaskedvalue="00"/>
          <field name="giop.flags.ziop_supported" showname=".... .0.. = ZIOP Supported: False" size="1" pos="72" show="0" value="0" unmaskedvalue="00"/>
          <field name="giop.flags.fragment" showname=".... ..0. = Fragment: False" size="1" pos="72" show="0" value="0" unmaskedvalue="00"/>
          <field name="giop.flags.little_endian" showname=".... ...0 = Little Endian: False" size="1" pos="72" show="0" value="0" unmaskedvalue="00"/>
        </field>
      </field>
      <field name="giop.type" showname="Message type: Request (0)" size="1" pos="73" show="0" value="00"/>
      <field name="giop.len" showname="Message size: 132" size="4" pos="74" show="132" value="00000084"/>
    </field>
  </proto>
  <proto name="fake-field-wrapper">
    <field name="" show="General Inter-ORB Protocol Request" size="132" pos="78" value="00000007030000000000000200000031afabcb0000000020b50d0b4400000001000000000000000100000008526f6f74504f410000000008000000010000000014636500000000046164640000000003000000110000000200027200000000010000000c0000000000010001000101094e454f0000000002001400010000000500000005">
      <field name="giop.request_id" showname="Request id: 7" size="4" pos="78" show="7" value="00000007"/>
      <field name="giop.response_flag" showname="Response flags: SyncScope WITH_TARGET (3)" size="1" pos="82" show="3" value="03"/>
      <field name="giop.reserved" showname="Reserved: 000000" size="3" pos="83" show="00:00:00" value="000000"/>
      <field name="giop.target_address.discriminant" showname="TargetAddress: KeyAddr (0)" size="2" pos="86" show="0" value="0000"/>
      <field name="giop.target_address.key_addr_len" showname="Key Address Length: 49" size="4" pos="90" show="49" value="00000031"/>
      <field name="giop.target_address.key_addr" showname="Key Address: ....... ...D................RootPOA.............." size="49" pos="94" show="....... ...D................RootPOA.............." value="afabcb0000000020b50d0b4400000001000000000000000100000008526f6f74504f410000000008000000010000000014"/>
      <field name="giop.request_op_len" showname="Operation length: 4" size="4" pos="146" show="4" value="00000004"/>
      <field name="giop.request_op" showname="Request operation: add" size="4" pos="150" show="add" value="61646400"/>
      <field name="" show="ServiceContextList" size="46" pos="154" value="00000003000000110000000200027200000000010000000c0000000000010001000101094e454f00000000020014">
        <field name="giop.seqlen" showname="Sequence Length: 3" size="4" pos="154" show="3" value="00000003"/>
        <field name="giop.iiop.sc" showname="ServiceContext" size="10" pos="158" show="" value="">
          <field name="giop.iiop.sc.vscid" showname="0000 0000 0000 0000 0000 0000 .... .... = VSCID: 0x00000000" size="4" pos="158" show="0" value="0" unmaskedvalue="00000011"/>
          <field name="giop.iiop.sc.scid" showname=".... .... .... .... .... .... 0001 0001 = SCID: Unknown (0x00000011)" size="4" pos="158" show="17" value="11" unmaskedvalue="00000011"/>
          <field name="giop.seqlen" showname="Sequence Length: 2" size="4" pos="162" show="2" value="00000002"/>
          <field name="giop.endianness" showname="Endianness: Big Endian (0)" size="1" pos="166" show="0" value="00"/>
          <field name="giop.context_data" showname="Context Data: ." size="1" pos="167" show="." value="02"/>
        </field>
        <field name="giop.iiop.sc" showname="ServiceContext" size="20" pos="170" show="" value="">
          <field name="giop.iiop.sc.vscid" showname="0000 0000 0000 0000 0000 0000 .... .... = VSCID: 0x00000000" size="4" pos="170" show="0" value="0" unmaskedvalue="00000001"/>
          <field name="giop.iiop.sc.scid" showname=".... .... .... .... .... .... 0000 0001 = SCID: CodeSets (0x00000001)" size="4" pos="170" show="1" value="1" unmaskedvalue="00000001"/>
          <field name="giop.seqlen" showname="Sequence Length: 12" size="4" pos="174" show="12" value="0000000c"/>
          <field name="giop.endianness" showname="Endianness: Big Endian (0)" size="1" pos="178" show="0" value="00"/>
          <field name="giop.char_data" showname="char data: ISO_8859_1 (65537)" size="4" pos="182" show="65537" value="00010001"/>
          <field name="giop.wchar_data" showname="wchar data: ISO_UTF_16 (65801)" size="4" pos="186" show="65801" value="00010109"/>
        </field>
        <field name="giop.iiop.sc" showname="ServiceContext" size="10" pos="190" show="" value="">
          <field name="giop.iiop.sc.vscid" showname="0000 0000 0100 1110 0100 0101 .... .... = VSCID: 0x00004e45" size="4" pos="190" show="20037" value="4E45" unmaskedvalue="4e454f00"/>
          <field name="giop.iiop.sc.scid" showname=".... .... .... .... .... .... 0000 0000 = SCID: 0x00000000" size="4" pos="190" show="0" value="0" unmaskedvalue="4e454f00"/>
          <field name="giop.seqlen" showname="Sequence Length: 2" size="4" pos="194" show="2" value="00000002"/>
          <field name="giop.endianness" showname="Endianness: Big Endian (0)" size="1" pos="198" show="0" value="00"/>
          <field name="giop.context_data" showname="Context Data: ." size="1" pos="199" show="." value="14"/>
        </field>
      </field>
  </field>
</proto>
  <proto name="fake-field-wrapper">
    <field name="giop-addition.Request_Operation" showname="Request_Operation: add" size="0" pos="78" show="add"/>
</proto>
  <proto name="giop-addition" showname="Addition Dissector Using GIOP API" size="8" pos="202">
    <field name="giop-addition.Addition.add.a" showname="a: 5" size="4" pos="202" show="5" value="00000005"/>
    <field name="giop-addition.Addition.add.b" showname="b: 5" size="4" pos="206" show="5" value="00000005"/>
  </proto>
</packet>


<packet>
  <proto name="geninfo" pos="0" showname="General information" size="110">
    <field name="num" pos="0" show="2" showname="Number" value="2" size="110"/>
    <field name="len" pos="0" show="110" showname="Frame Length" value="6e" size="110"/>
    <field name="caplen" pos="0" show="110" showname="Captured Length" value="6e" size="110"/>
    <field name="timestamp" pos="0" show="Jul 22, 2015 11:45:55.499981000 UTC" showname="Captured Time" value="1437565555.499981000" size="110"/>
  </proto>
  <proto name="frame" showname="Frame 2: 110 bytes on wire (880 bits), 110 bytes captured (880 bits)" size="110" pos="0">
    <field name="frame.encap_type" showname="Encapsulation type: Ethernet (1)" size="0" pos="0" show="1"/>
    <field name="frame.time" showname="Arrival Time: Jul 22, 2015 11:45:55.499981000 UTC" size="0" pos="0" show="Jul 22, 2015 11:45:55.499981000 UTC"/>
    <field name="frame.offset_shift" showname="Time shift for this packet: 0.000000000 seconds" size="0" pos="0" show="0.000000000"/>
    <field name="frame.time_epoch" showname="Epoch Time: 1437565555.499981000 seconds" size="0" pos="0" show="1437565555.499981000"/>
    <field name="frame.time_delta" showname="Time delta from previous captured frame: 0.000971000 seconds" size="0" pos="0" show="0.000971000"/>
    <field name="frame.time_delta_displayed" showname="Time delta from previous displayed frame: 0.000971000 seconds" size="0" pos="0" show="0.000971000"/>
    <field name="frame.time_relative" showname="Time since reference or first frame: 0.000971000 seconds" size="0" pos="0" show="0.000971000"/>
    <field name="frame.number" showname="Frame Number: 2" size="0" pos="0" show="2"/>
    <field name="frame.len" showname="Frame Length: 110 bytes (880 bits)" size="0" pos="0" show="110"/>
    <field name="frame.cap_len" showname="Capture Length: 110 bytes (880 bits)" size="0" pos="0" show="110"/>
    <field name="frame.marked" showname="Frame is marked: False" size="0" pos="0" show="0"/>
    <field name="frame.ignored" showname="Frame is ignored: False" size="0" pos="0" show="0"/>
    <field name="frame.protocols" showname="Protocols in frame: eth:ethertype:ip:tcp:giop" size="0" pos="0" show="eth:ethertype:ip:tcp:giop"/>
  </proto>
  <proto name="eth" showname="Ethernet II, Src: 00:00:00_00:00:00 (00:00:00:00:00:00), Dst: 00:00:00_00:00:00 (00:00:00:00:00:00)" size="14" pos="0">
    <field name="eth.dst" showname="Destination: 00:00:00_00:00:00 (00:00:00:00:00:00)" size="6" pos="0" show="00:00:00:00:00:00" value="000000000000">
      <field name="eth.dst_resolved" showname="Destination (resolved): 00:00:00_00:00:00" hide="yes" size="6" pos="0" show="00:00:00_00:00:00" value="000000000000"/>
      <field name="eth.addr" showname="Address: 00:00:00_00:00:00 (00:00:00:00:00:00)" size="6" pos="0" show="00:00:00:00:00:00" value="000000000000"/>
      <field name="eth.addr_resolved" showname="Address (resolved): 00:00:00_00:00:00" hide="yes" size="6" pos="0" show="00:00:00_00:00:00" value="000000000000"/>
      <field name="eth.lg" showname=".... ..0. .... .... .... .... = LG bit: Globally unique address (factory default)" size="3" pos="0" show="0" value="0" unmaskedvalue="000000"/>
      <field name="eth.ig" showname=".... ...0 .... .... .... .... = IG bit: Individual address (unicast)" size="3" pos="0" show="0" value="0" unmaskedvalue="000000"/>
    </field>
    <field name="eth.src" showname="Source: 00:00:00_00:00:00 (00:00:00:00:00:00)" size="6" pos="6" show="00:00:00:00:00:00" value="000000000000">
      <field name="eth.src_resolved" showname="Source (resolved): 00:00:00_00:00:00" hide="yes" size="6" pos="6" show="00:00:00_00:00:00" value="000000000000"/>
      <field name="eth.addr" showname="Address: 00:00:00_00:00:00 (00:00:00:00:00:00)" size="6" pos="6" show="00:00:00:00:00:00" value="000000000000"/>
      <field name="eth.addr_resolved" showname="Address (resolved): 00:00:00_00:00:00" hide="yes" size="6" pos="6" show="00:00:00_00:00:00" value="000000000000"/>
      <field name="eth.lg" showname=".... ..0. .... .... .... .... = LG bit: Globally unique address (factory default)" size="3" pos="6" show="0" value="0" unmaskedvalue="000000"/>
      <field name="eth.ig" showname=".... ...0 .... .... .... .... = IG bit: Individual address (unicast)" size="3" pos="6" show="0" value="0" unmaskedvalue="000000"/>
    </field>
    <field name="eth.type" showname="Type: IP (0x0800)" size="2" pos="12" show="2048" value="0800"/>
  </proto>
  <proto name="ip" showname="Internet Protocol Version 4, Src: 10.0.2.15 (10.0.2.15), Dst: 10.0.2.15 (10.0.2.15)" size="20" pos="14">
    <field name="ip.version" showname="Version: 4" size="1" pos="14" show="4" value="45"/>
    <field name="ip.hdr_len" showname="Header Length: 20 bytes" size="1" pos="14" show="20" value="45"/>
    <field name="ip.dsfield" showname="Differentiated Services Field: 0x00 (DSCP 0x00: Default; ECN: 0x00: Not-ECT (Not ECN-Capable Transport))" size="1" pos="15" show="0" value="00">
      <field name="ip.dsfield.dscp" showname="0000 00.. = Differentiated Services Codepoint: Default (0x00)" size="1" pos="15" show="0" value="0" unmaskedvalue="00"/>
      <field name="ip.dsfield.ecn" showname=".... ..00 = Explicit Congestion Notification: Not-ECT (Not ECN-Capable Transport) (0x00)" size="1" pos="15" show="0" value="0" unmaskedvalue="00"/>
    </field>
    <field name="ip.len" showname="Total Length: 96" size="2" pos="16" show="96" value="0060"/>
    <field name="ip.id" showname="Identification: 0x6c4a (27722)" size="2" pos="18" show="27722" value="6c4a"/>
    <field name="ip.flags" showname="Flags: 0x02 (Don&apos;t Fragment)" size="1" pos="20" show="2" value="40">
      <field name="ip.flags.rb" showname="0... .... = Reserved bit: Not set" size="1" pos="20" show="0" value="40"/>
      <field name="ip.flags.df" showname=".1.. .... = Don&apos;t fragment: Set" size="1" pos="20" show="1" value="40"/>
      <field name="ip.flags.mf" showname="..0. .... = More fragments: Not set" size="1" pos="20" show="0" value="40"/>
    </field>
    <field name="ip.frag_offset" showname="Fragment offset: 0" size="2" pos="20" show="0" value="4000"/>
    <field name="ip.ttl" showname="Time to live: 64" size="1" pos="22" show="64" value="40"/>
    <field name="ip.proto" showname="Protocol: TCP (6)" size="1" pos="23" show="6" value="06"/>
    <field name="ip.checksum" showname="Header checksum: 0xb630 [validation disabled]" size="2" pos="24" show="46640" value="b630">
      <field name="ip.checksum_good" showname="Good: False" size="2" pos="24" show="0" value="b630"/>
      <field name="ip.checksum_bad" showname="Bad: False" size="2" pos="24" show="0" value="b630"/>
    </field>
    <field name="ip.src" showname="Source: 10.0.2.15 (10.0.2.15)" size="4" pos="26" show="10.0.2.15" value="0a00020f"/>
    <field name="ip.addr" showname="Source or Destination Address: 10.0.2.15 (10.0.2.15)" hide="yes" size="4" pos="26" show="10.0.2.15" value="0a00020f"/>
    <field name="ip.src_host" showname="Source Host: 10.0.2.15" hide="yes" size="4" pos="26" show="10.0.2.15" value="0a00020f"/>
    <field name="ip.host" showname="Source or Destination Host: 10.0.2.15" hide="yes" size="4" pos="26" show="10.0.2.15" value="0a00020f"/>
    <field name="ip.dst" showname="Destination: 10.0.2.15 (10.0.2.15)" size="4" pos="30" show="10.0.2.15" value="0a00020f"/>
    <field name="ip.addr" showname="Source or Destination Address: 10.0.2.15 (10.0.2.15)" hide="yes" size="4" pos="30" show="10.0.2.15" value="0a00020f"/>
    <field name="ip.dst_host" showname="Destination Host: 10.0.2.15" hide="yes" size="4" pos="30" show="10.0.2.15" value="0a00020f"/>
    <field name="ip.host" showname="Source or Destination Host: 10.0.2.15" hide="yes" size="4" pos="30" show="10.0.2.15" value="0a00020f"/>
  </proto>
  <proto name="tcp" showname="Transmission Control Protocol, Src Port: 46420 (46420), Dst Port: 53953 (53953), Seq: 1, Ack: 145, Len: 44" size="32" pos="34">
    <field name="tcp.srcport" showname="Source Port: 46420 (46420)" size="2" pos="34" show="46420" value="b554"/>
    <field name="tcp.dstport" showname="Destination Port: 53953 (53953)" size="2" pos="36" show="53953" value="d2c1"/>
    <field name="tcp.port" showname="Source or Destination Port: 46420" hide="yes" size="2" pos="34" show="46420" value="b554"/>
    <field name="tcp.port" showname="Source or Destination Port: 53953" hide="yes" size="2" pos="36" show="53953" value="d2c1"/>
    <field name="tcp.stream" showname="Stream index: 0" size="0" pos="34" show="0"/>
    <field name="tcp.len" showname="TCP Segment Len: 44" size="1" pos="46" show="44" value="80"/>
    <field name="tcp.seq" showname="Sequence number: 1    (relative sequence number)" size="4" pos="38" show="1" value="cda034d0"/>
    <field name="tcp.nxtseq" showname="Next sequence number: 45    (relative sequence number)" size="0" pos="34" show="45"/>
    <field name="tcp.ack" showname="Acknowledgment number: 145    (relative ack number)" size="4" pos="42" show="145" value="54de06e6"/>
    <field name="tcp.hdr_len" showname="Header Length: 32 bytes" size="1" pos="46" show="32" value="80"/>
    <field name="tcp.flags" showname=".... 0000 0001 1000 = Flags: 0x018 (PSH, ACK)" size="2" pos="46" show="24" value="18" unmaskedvalue="8018">
      <field name="tcp.flags.res" showname="000. .... .... = Reserved: Not set" size="1" pos="46" show="0" value="0" unmaskedvalue="80"/>
      <field name="tcp.flags.ns" showname="...0 .... .... = Nonce: Not set" size="1" pos="46" show="0" value="0" unmaskedvalue="80"/>
      <field name="tcp.flags.cwr" showname=".... 0... .... = Congestion Window Reduced (CWR): Not set" size="1" pos="47" show="0" value="0" unmaskedvalue="18"/>
      <field name="tcp.flags.ecn" showname=".... .0.. .... = ECN-Echo: Not set" size="1" pos="47" show="0" value="0" unmaskedvalue="18"/>
      <field name="tcp.flags.urg" showname=".... ..0. .... = Urgent: Not set" size="1" pos="47" show="0" value="0" unmaskedvalue="18"/>
      <field name="tcp.flags.ack" showname=".... ...1 .... = Acknowledgment: Set" size="1" pos="47" show="1" value="1" unmaskedvalue="18"/>
      <field name="tcp.flags.push" showname=".... .... 1... = Push: Set" size="1" pos="47" show="1" value="1" unmaskedvalue="18"/>
      <field name="tcp.flags.reset" showname=".... .... .0.. = Reset: Not set" size="1" pos="47" show="0" value="0" unmaskedvalue="18"/>
      <field name="tcp.flags.syn" showname=".... .... ..0. = Syn: Not set" size="1" pos="47" show="0" value="0" unmaskedvalue="18"/>
      <field name="tcp.flags.fin" showname=".... .... ...0 = Fin: Not set" size="1" pos="47" show="0" value="0" unmaskedvalue="18"/>
    </field>
    <field name="tcp.window_size_value" showname="Window size value: 367" size="2" pos="48" show="367" value="016f"/>
    <field name="tcp.window_size" showname="Calculated window size: 367" size="2" pos="48" show="367" value="016f"/>
    <field name="tcp.window_size_scalefactor" showname="Window size scaling factor: -1 (unknown)" size="2" pos="48" show="-1" value="016f"/>
    <field name="tcp.checksum" showname="Checksum: 0x1870 [validation disabled]" size="2" pos="50" show="6256" value="1870">
      <field name="tcp.checksum_good" showname="Good Checksum: False" size="2" pos="50" show="0" value="1870"/>
      <field name="tcp.checksum_bad" showname="Bad Checksum: False" size="2" pos="50" show="0" value="1870"/>
    </field>
    <field name="tcp.urgent_pointer" showname="Urgent pointer: 0" size="2" pos="52" show="0" value="0000"/>
    <field name="tcp.options" showname="Options: (12 bytes), No-Operation (NOP), No-Operation (NOP), Timestamps" size="12" pos="54" show="01:01:08:0a:00:36:79:00:00:36:79:00" value="0101080a0036790000367900">
      <field name="" show="No-Operation (NOP)" size="1" pos="54" value="01">
        <field name="tcp.options.type" showname="Type: 1" size="1" pos="54" show="1" value="01">
          <field name="tcp.options.type.copy" showname="0... .... = Copy on fragmentation: No" size="1" pos="54" show="0" value="0" unmaskedvalue="01"/>
          <field name="tcp.options.type.class" showname=".00. .... = Class: Control (0)" size="1" pos="54" show="0" value="0" unmaskedvalue="01"/>
          <field name="tcp.options.type.number" showname="...0 0001 = Number: No-Operation (NOP) (1)" size="1" pos="54" show="1" value="1" unmaskedvalue="01"/>
        </field>
      </field>
      <field name="" show="No-Operation (NOP)" size="1" pos="55" value="01">
        <field name="tcp.options.type" showname="Type: 1" size="1" pos="55" show="1" value="01">
          <field name="tcp.options.type.copy" showname="0... .... = Copy on fragmentation: No" size="1" pos="55" show="0" value="0" unmaskedvalue="01"/>
          <field name="tcp.options.type.class" showname=".00. .... = Class: Control (0)" size="1" pos="55" show="0" value="0" unmaskedvalue="01"/>
          <field name="tcp.options.type.number" showname="...0 0001 = Number: No-Operation (NOP) (1)" size="1" pos="55" show="1" value="1" unmaskedvalue="01"/>
        </field>
      </field>
      <field name="" show="Timestamps: TSval 3569920, TSecr 3569920" size="10" pos="56" value="080a0036790000367900">
        <field name="tcp.option_kind" showname="Kind: Time Stamp Option (8)" size="1" pos="56" show="8" value="08"/>
        <field name="tcp.option_len" showname="Length: 10" size="1" pos="57" show="10" value="0a"/>
        <field name="tcp.options.timestamp.tsval" showname="Timestamp value: 3569920" size="4" pos="58" show="3569920" value="00367900"/>
        <field name="tcp.options.timestamp.tsecr" showname="Timestamp echo reply: 3569920" size="4" pos="62" show="3569920" value="00367900"/>
      </field>
    </field>
    <field name="tcp.analysis" showname="SEQ/ACK analysis" size="0" pos="34" show="" value="">
      <field name="tcp.analysis.acks_frame" showname="This is an ACK to the segment in frame: 1" size="0" pos="34" show="1"/>
      <field name="tcp.analysis.ack_rtt" showname="The RTT to ACK the segment was: 0.000971000 seconds" size="0" pos="34" show="0.000971000"/>
      <field name="tcp.analysis.bytes_in_flight" showname="Bytes in flight: 44" size="0" pos="34" show="44"/>
    </field>
    <field name="tcp.pdu.size" showname="PDU Size: 44" size="44" pos="66" show="44" value="47494f5001020001000000200000000700000000000000014e454f0000000002001400c4000000060000000a"/>
  </proto>
  <proto name="giop" showname="General Inter-ORB Protocol" size="44" pos="66">
    <field name="" show="GIOP Header" size="12" pos="66" value="47494f500102000100000020">
      <field name="giop.magic" showname="Magic: GIOP" size="4" pos="66" show="GIOP" value="47494f50"/>
      <field name="" show="Version: 1.2" size="2" pos="70" value="0102">
        <field name="giop.major_version" showname="Major Version: 1" size="1" pos="70" show="1" value="01"/>
        <field name="giop.minor_version" showname="Minor Version: 2" size="1" pos="71" show="2" value="02"/>
        <field name="giop.flags" showname="Message Flags: 0x00, (Big Endian)" size="1" pos="72" show="0" value="00">
          <field name="giop.flags.ziop_enabled" showname=".... 0... = ZIOP Enabled: False" size="1" pos="72" show="0" value="0" unmaskedvalue="00"/>
          <field name="giop.flags.ziop_supported" showname=".... .0.. = ZIOP Supported: False" size="1" pos="72" show="0" value="0" unmaskedvalue="00"/>
          <field name="giop.flags.fragment" showname=".... ..0. = Fragment: False" size="1" pos="72" show="0" value="0" unmaskedvalue="00"/>
          <field name="giop.flags.little_endian" showname=".... ...0 = Little Endian: False" size="1" pos="72" show="0" value="0" unmaskedvalue="00"/>
        </field>
      </field>
      <field name="giop.type" showname="Message type: Reply (1)" size="1" pos="73" show="1" value="01"/>
      <field name="giop.len" showname="Message size: 32" size="4" pos="74" show="32" value="00000020"/>
    </field>
  </proto>
  <proto name="fake-field-wrapper">
    <field name="" show="General Inter-ORB Protocol Reply" size="32" pos="78" value="0000000700000000000000014e454f0000000002001400c4000000060000000a">
      <field name="giop.request_id" showname="Request id: 7" size="4" pos="78" show="7" value="00000007"/>
      <field name="giop.replystatus" showname="Reply status: No Exception (0)" size="4" pos="82" show="0" value="00000000"/>
      <field name="" show="ServiceContextList" size="14" pos="86" value="000000014e454f00000000020014">
        <field name="giop.seqlen" showname="Sequence Length: 1" size="4" pos="86" show="1" value="00000001"/>
        <field name="giop.iiop.sc" showname="ServiceContext" size="10" pos="90" show="" value="">
          <field name="giop.iiop.sc.vscid" showname="0000 0000 0100 1110 0100 0101 .... .... = VSCID: 0x00004e45" size="4" pos="90" show="20037" value="4E45" unmaskedvalue="4e454f00"/>
          <field name="giop.iiop.sc.scid" showname=".... .... .... .... .... .... 0000 0000 = SCID: 0x00000000" size="4" pos="90" show="0" value="0" unmaskedvalue="4e454f00"/>
          <field name="giop.seqlen" showname="Sequence Length: 2" size="4" pos="94" show="2" value="00000002"/>
          <field name="giop.endianness" showname="Endianness: Big Endian (0)" size="1" pos="98" show="0" value="00"/>
          <field name="giop.context_data" showname="Context Data: ." size="1" pos="99" show="." value="14"/>
        </field>
      </field>
  </field>
</proto>
  <proto name="fake-field-wrapper">
    <field name="giop-addition.Request_Operation" showname="Request_Operation: add" size="0" pos="78" show="add"/>
</proto>
  <proto name="giop-addition" showname="Addition Dissector Using GIOP API" size="4" pos="106">
    <field name="giop-addition.Addition.add.return" showname="Return value: 10" size="4" pos="106" show="10" value="0000000a"/>
  </proto>
</packet>


<packet>
  <proto name="geninfo" pos="0" showname="General information" size="210">
    <field name="num" pos="0" show="4" showname="Number" value="4" size="210"/>
    <field name="len" pos="0" show="210" showname="Frame Length" value="d2" size="210"/>
    <field name="caplen" pos="0" show="210" showname="Captured Length" value="d2" size="210"/>
    <field name="timestamp" pos="0" show="Jul 22, 2015 11:46:00.586767000 UTC" showname="Captured Time" value="1437565560.586767000" size="210"/>
  </proto>
  <proto name="frame" showname="Frame 4: 210 bytes on wire (1680 bits), 210 bytes captured (1680 bits)" size="210" pos="0">
    <field name="frame.encap_type" showname="Encapsulation type: Ethernet (1)" size="0" pos="0" show="1"/>
    <field name="frame.time" showname="Arrival Time: Jul 22, 2015 11:46:00.586767000 UTC" size="0" pos="0" show="Jul 22, 2015 11:46:00.586767000 UTC"/>
    <field name="frame.offset_shift" showname="Time shift for this packet: 0.000000000 seconds" size="0" pos="0" show="0.000000000"/>
    <field name="frame.time_epoch" showname="Epoch Time: 1437565560.586767000 seconds" size="0" pos="0" show="1437565560.586767000"/>
    <field name="frame.time_delta" showname="Time delta from previous captured frame: 5.086693000 seconds" size="0" pos="0" show="5.086693000"/>
    <field name="frame.time_delta_displayed" showname="Time delta from previous displayed frame: 5.086786000 seconds" size="0" pos="0" show="5.086786000"/>
    <field name="frame.time_relative" showname="Time since reference or first frame: 5.087757000 seconds" size="0" pos="0" show="5.087757000"/>
    <field name="frame.number" showname="Frame Number: 4" size="0" pos="0" show="4"/>
    <field name="frame.len" showname="Frame Length: 210 bytes (1680 bits)" size="0" pos="0" show="210"/>
    <field name="frame.cap_len" showname="Capture Length: 210 bytes (1680 bits)" size="0" pos="0" show="210"/>
    <field name="frame.marked" showname="Frame is marked: False" size="0" pos="0" show="0"/>
    <field name="frame.ignored" showname="Frame is ignored: False" size="0" pos="0" show="0"/>
    <field name="frame.protocols" showname="Protocols in frame: eth:ethertype:ip:tcp:giop" size="0" pos="0" show="eth:ethertype:ip:tcp:giop"/>
  </proto>
  <proto name="eth" showname="Ethernet II, Src: 00:00:00_00:00:00 (00:00:00:00:00:00), Dst: 00:00:00_00:00:00 (00:00:00:00:00:00)" size="14" pos="0">
    <field name="eth.dst" showname="Destination: 00:00:00_00:00:00 (00:00:00:00:00:00)" size="6" pos="0" show="00:00:00:00:00:00" value="000000000000">
      <field name="eth.dst_resolved" showname="Destination (resolved): 00:00:00_00:00:00" hide="yes" size="6" pos="0" show="00:00:00_00:00:00" value="000000000000"/>
      <field name="eth.addr" showname="Address: 00:00:00_00:00:00 (00:00:00:00:00:00)" size="6" pos="0" show="00:00:00:00:00:00" value="000000000000"/>
      <field name="eth.addr_resolved" showname="Address (resolved): 00:00:00_00:00:00" hide="yes" size="6" pos="0" show="00:00:00_00:00:00" value="000000000000"/>
      <field name="eth.lg" showname=".... ..0. .... .... .... .... = LG bit: Globally unique address (factory default)" size="3" pos="0" show="0" value="0" unmaskedvalue="000000"/>
      <field name="eth.ig" showname=".... ...0 .... .... .... .... = IG bit: Individual address (unicast)" size="3" pos="0" show="0" value="0" unmaskedvalue="000000"/>
    </field>
    <field name="eth.src" showname="Source: 00:00:00_00:00:00 (00:00:00:00:00:00)" size="6" pos="6" show="00:00:00:00:00:00" value="000000000000">
      <field name="eth.src_resolved" showname="Source (resolved): 00:00:00_00:00:00" hide="yes" size="6" pos="6" show="00:00:00_00:00:00" value="000000000000"/>
      <field name="eth.addr" showname="Address: 00:00:00_00:00:00 (00:00:00:00:00:00)" size="6" pos="6" show="00:00:00:00:00:00" value="000000000000"/>
      <field name="eth.addr_resolved" showname="Address (resolved): 00:00:00_00:00:00" hide="yes" size="6" pos="6" show="00:00:00_00:00:00" value="000000000000"/>
      <field name="eth.lg" showname=".... ..0. .... .... .... .... = LG bit: Globally unique address (factory default)" size="3" pos="6" show="0" value="0" unmaskedvalue="000000"/>
      <field name="eth.ig" showname=".... ...0 .... .... .... .... = IG bit: Individual address (unicast)" size="3" pos="6" show="0" value="0" unmaskedvalue="000000"/>
    </field>
    <field name="eth.type" showname="Type: IP (0x0800)" size="2" pos="12" show="2048" value="0800"/>
  </proto>
  <proto name="ip" showname="Internet Protocol Version 4, Src: 10.0.2.15 (10.0.2.15), Dst: 10.0.2.15 (10.0.2.15)" size="20" pos="14">
    <field name="ip.version" showname="Version: 4" size="1" pos="14" show="4" value="45"/>
    <field name="ip.hdr_len" showname="Header Length: 20 bytes" size="1" pos="14" show="20" value="45"/>
    <field name="ip.dsfield" showname="Differentiated Services Field: 0x00 (DSCP 0x00: Default; ECN: 0x00: Not-ECT (Not ECN-Capable Transport))" size="1" pos="15" show="0" value="00">
      <field name="ip.dsfield.dscp" showname="0000 00.. = Differentiated Services Codepoint: Default (0x00)" size="1" pos="15" show="0" value="0" unmaskedvalue="00"/>
      <field name="ip.dsfield.ecn" showname=".... ..00 = Explicit Congestion Notification: Not-ECT (Not ECN-Capable Transport) (0x00)" size="1" pos="15" show="0" value="0" unmaskedvalue="00"/>
    </field>
    <field name="ip.len" showname="Total Length: 196" size="2" pos="16" show="196" value="00c4"/>
    <field name="ip.id" showname="Identification: 0x5b12 (23314)" size="2" pos="18" show="23314" value="5b12"/>
    <field name="ip.flags" showname="Flags: 0x02 (Don&apos;t Fragment)" size="1" pos="20" show="2" value="40">
      <field name="ip.flags.rb" showname="0... .... = Reserved bit: Not set" size="1" pos="20" show="0" value="40"/>
      <field name="ip.flags.df" showname=".1.. .... = Don&apos;t fragment: Set" size="1" pos="20" show="1" value="40"/>
      <field name="ip.flags.mf" showname="..0. .... = More fragments: Not set" size="1" pos="20" show="0" value="40"/>
    </field>
    <field name="ip.frag_offset" showname="Fragment offset: 0" size="2" pos="20" show="0" value="4000"/>
    <field name="ip.ttl" showname="Time to live: 64" size="1" pos="22" show="64" value="40"/>
    <field name="ip.proto" showname="Protocol: TCP (6)" size="1" pos="23" show="6" value="06"/>
    <field name="ip.checksum" showname="Header checksum: 0xc704 [validation disabled]" size="2" pos="24" show="50948" value="c704">
      <field name="ip.checksum_good" showname="Good: False" size="2" pos="24" show="0" value="c704"/>
      <field name="ip.checksum_bad" showname="Bad: False" size="2" pos="24" show="0" value="c704"/>
    </field>
    <field name="ip.src" showname="Source: 10.0.2.15 (10.0.2.15)" size="4" pos="26" show="10.0.2.15" value="0a00020f"/>
    <field name="ip.addr" showname="Source or Destination Address: 10.0.2.15 (10.0.2.15)" hide="yes" size="4" pos="26" show="10.0.2.15" value="0a00020f"/>
    <field name="ip.src_host" showname="Source Host: 10.0.2.15" hide="yes" size="4" pos="26" show="10.0.2.15" value="0a00020f"/>
    <field name="ip.host" showname="Source or Destination Host: 10.0.2.15" hide="yes" size="4" pos="26" show="10.0.2.15" value="0a00020f"/>
    <field name="ip.dst" showname="Destination: 10.0.2.15 (10.0.2.15)" size="4" pos="30" show="10.0.2.15" value="0a00020f"/>
    <field name="ip.addr" showname="Source or Destination Address: 10.0.2.15 (10.0.2.15)" hide="yes" size="4" pos="30" show="10.0.2.15" value="0a00020f"/>
    <field name="ip.dst_host" showname="Destination Host: 10.0.2.15" hide="yes" size="4" pos="30" show="10.0.2.15" value="0a00020f"/>
    <field name="ip.host" showname="Source or Destination Host: 10.0.2.15" hide="yes" size="4" pos="30" show="10.0.2.15" value="0a00020f"/>
  </proto>
  <proto name="tcp" showname="Transmission Control Protocol, Src Port: 53953 (53953), Dst Port: 46420 (46420), Seq: 145, Ack: 45, Len: 144" size="32" pos="34">
    <field name="tcp.srcport" showname="Source Port: 53953 (53953)" size="2" pos="34" show="53953" value="d2c1"/>
    <field name="tcp.dstport" showname="Destination Port: 46420 (46420)" size="2" pos="36" show="46420" value="b554"/>
    <field name="tcp.port" showname="Source or Destination Port: 53953" hide="yes" size="2" pos="34" show="53953" value="d2c1"/>
    <field name="tcp.port" showname="Source or Destination Port: 46420" hide="yes" size="2" pos="36" show="46420" value="b554"/>
    <field name="tcp.stream" showname="Stream index: 0" size="0" pos="34" show="0"/>
    <field name="tcp.len" showname="TCP Segment Len: 144" size="1" pos="46" show="144" value="80"/>
    <field name="tcp.seq" showname="Sequence number: 145    (relative sequence number)" size="4" pos="38" show="145" value="54de06e6"/>
    <field name="tcp.nxtseq" showname="Next sequence number: 289    (relative sequence number)" size="0" pos="34" show="289"/>
    <field name="tcp.ack" showname="Acknowledgment number: 45    (relative ack number)" size="4" pos="42" show="45" value="cda034fc"/>
    <field name="tcp.hdr_len" showname="Header Length: 32 bytes" size="1" pos="46" show="32" value="80"/>
    <field name="tcp.flags" showname=".... 0000 0001 1000 = Flags: 0x018 (PSH, ACK)" size="2" pos="46" show="24" value="18" unmaskedvalue="8018">
      <field name="tcp.flags.res" showname="000. .... .... = Reserved: Not set" size="1" pos="46" show="0" value="0" unmaskedvalue="80"/>
      <field name="tcp.flags.ns" showname="...0 .... .... = Nonce: Not set" size="1" pos="46" show="0" value="0" unmaskedvalue="80"/>
      <field name="tcp.flags.cwr" showname=".... 0... .... = Congestion Window Reduced (CWR): Not set" size="1" pos="47" show="0" value="0" unmaskedvalue="18"/>
      <field name="tcp.flags.ecn" showname=".... .0.. .... = ECN-Echo: Not set" size="1" pos="47" show="0" value="0" unmaskedvalue="18"/>
      <field name="tcp.flags.urg" showname=".... ..0. .... = Urgent: Not set" size="1" pos="47" show="0" value="0" unmaskedvalue="18"/>
      <field name="tcp.flags.ack" showname=".... ...1 .... = Acknowledgment: Set" size="1" pos="47" show="1" value="1" unmaskedvalue="18"/>
      <field name="tcp.flags.push" showname=".... .... 1... = Push: Set" size="1" pos="47" show="1" value="1" unmaskedvalue="18"/>
      <field name="tcp.flags.reset" showname=".... .... .0.. = Reset: Not set" size="1" pos="47" show="0" value="0" unmaskedvalue="18"/>
      <field name="tcp.flags.syn" showname=".... .... ..0. = Syn: Not set" size="1" pos="47" show="0" value="0" unmaskedvalue="18"/>
      <field name="tcp.flags.fin" showname=".... .... ...0 = Fin: Not set" size="1" pos="47" show="0" value="0" unmaskedvalue="18"/>
    </field>
    <field name="tcp.window_size_value" showname="Window size value: 350" size="2" pos="48" show="350" value="015e"/>
    <field name="tcp.window_size" showname="Calculated window size: 350" size="2" pos="48" show="350" value="015e"/>
    <field name="tcp.window_size_scalefactor" showname="Window size scaling factor: -1 (unknown)" size="2" pos="48" show="-1" value="015e"/>
    <field name="tcp.checksum" showname="Checksum: 0x18d4 [validation disabled]" size="2" pos="50" show="6356" value="18d4">
      <field name="tcp.checksum_good" showname="Good Checksum: False" size="2" pos="50" show="0" value="18d4"/>
      <field name="tcp.checksum_bad" showname="Bad Checksum: False" size="2" pos="50" show="0" value="18d4"/>
    </field>
    <field name="tcp.urgent_pointer" showname="Urgent pointer: 0" size="2" pos="52" show="0" value="0000"/>
    <field name="tcp.options" showname="Options: (12 bytes), No-Operation (NOP), No-Operation (NOP), Timestamps" size="12" pos="54" show="01:01:08:0a:00:36:7d:f8:00:36:79:00" value="0101080a00367df800367900">
      <field name="" show="No-Operation (NOP)" size="1" pos="54" value="01">
        <field name="tcp.options.type" showname="Type: 1" size="1" pos="54" show="1" value="01">
          <field name="tcp.options.type.copy" showname="0... .... = Copy on fragmentation: No" size="1" pos="54" show="0" value="0" unmaskedvalue="01"/>
          <field name="tcp.options.type.class" showname=".00. .... = Class: Control (0)" size="1" pos="54" show="0" value="0" unmaskedvalue="01"/>
          <field name="tcp.options.type.number" showname="...0 0001 = Number: No-Operation (NOP) (1)" size="1" pos="54" show="1" value="1" unmaskedvalue="01"/>
        </field>
      </field>
      <field name="" show="No-Operation (NOP)" size="1" pos="55" value="01">
        <field name="tcp.options.type" showname="Type: 1" size="1" pos="55" show="1" value="01">
          <field name="tcp.options.type.copy" showname="0... .... = Copy on fragmentation: No" size="1" pos="55" show="0" value="0" unmaskedvalue="01"/>
          <field name="tcp.options.type.class" showname=".00. .... = Class: Control (0)" size="1" pos="55" show="0" value="0" unmaskedvalue="01"/>
          <field name="tcp.options.type.number" showname="...0 0001 = Number: No-Operation (NOP) (1)" size="1" pos="55" show="1" value="1" unmaskedvalue="01"/>
        </field>
      </field>
      <field name="" show="Timestamps: TSval 3571192, TSecr 3569920" size="10" pos="56" value="080a00367df800367900">
        <field name="tcp.option_kind" showname="Kind: Time Stamp Option (8)" size="1" pos="56" show="8" value="08"/>
        <field name="tcp.option_len" showname="Length: 10" size="1" pos="57" show="10" value="0a"/>
        <field name="tcp.options.timestamp.tsval" showname="Timestamp value: 3571192" size="4" pos="58" show="3571192" value="00367df8"/>
        <field name="tcp.options.timestamp.tsecr" showname="Timestamp echo reply: 3569920" size="4" pos="62" show="3569920" value="00367900"/>
      </field>
    </field>
    <field name="tcp.analysis" showname="SEQ/ACK analysis" size="0" pos="34" show="" value="">
      <field name="tcp.analysis.bytes_in_flight" showname="Bytes in flight: 144" size="0" pos="34" show="144"/>
    </field>
    <field name="tcp.pdu.size" showname="PDU Size: 144" size="144" pos="66" show="144" value="47494f50010200000000008400000008030000000000000200000031afabcb0000000020b50d0b4400000001000000000000000100000008526f6f74504f410000000008000000010000000014636500000000046164640000000003000000110000000200027200000000010000000c0000000000010001000101094e454f0000000002001400010000000a0000000a"/>
  </proto>
  <proto name="giop" showname="General Inter-ORB Protocol" size="144" pos="66">
    <field name="" show="GIOP Header" size="12" pos="66" value="47494f500102000000000084">
      <field name="giop.magic" showname="Magic: GIOP" size="4" pos="66" show="GIOP" value="47494f50"/>
      <field name="" show="Version: 1.2" size="2" pos="70" value="0102">
        <field name="giop.major_version" showname="Major Version: 1" size="1" pos="70" show="1" value="01"/>
        <field name="giop.minor_version" showname="Minor Version: 2" size="1" pos="71" show="2" value="02"/>
        <field name="giop.flags" showname="Message Flags: 0x00, (Big Endian)" size="1" pos="72" show="0" value="00">
          <field name="giop.flags.ziop_enabled" showname=".... 0... = ZIOP Enabled: False" size="1" pos="72" show="0" value="0" unmaskedvalue="00"/>
          <field name="giop.flags.ziop_supported" showname=".... .0.. = ZIOP Supported: False" size="1" pos="72" show="0" value="0" unmaskedvalue="00"/>
          <field name="giop.flags.fragment" showname=".... ..0. = Fragment: False" size="1" pos="72" show="0" value="0" unmaskedvalue="00"/>
          <field name="giop.flags.little_endian" showname=".... ...0 = Little Endian: False" size="1" pos="72" show="0" value="0" unmaskedvalue="00"/>
        </field>
      </field>
      <field name="giop.type" showname="Message type: Request (0)" size="1" pos="73" show="0" value="00"/>
      <field name="giop.len" showname="Message size: 132" size="4" pos="74" show="132" value="00000084"/>
    </field>
  </proto>
  <proto name="fake-field-wrapper">
    <field name="" show="General Inter-ORB Protocol Request" size="132" pos="78" value="00000008030000000000000200000031afabcb0000000020b50d0b4400000001000000000000000100000008526f6f74504f410000000008000000010000000014636500000000046164640000000003000000110000000200027200000000010000000c0000000000010001000101094e454f0000000002001400010000000a0000000a">
      <field name="giop.request_id" showname="Request id: 8" size="4" pos="78" show="8" value="00000008"/>
      <field name="giop.response_flag" showname="Response flags: SyncScope WITH_TARGET (3)" size="1" pos="82" show="3" value="03"/>
      <field name="giop.reserved" showname="Reserved: 000000" size="3" pos="83" show="00:00:00" value="000000"/>
      <field name="giop.target_address.discriminant" showname="TargetAddress: KeyAddr (0)" size="2" pos="86" show="0" value="0000"/>
      <field name="giop.target_address.key_addr_len" showname="Key Address Length: 49" size="4" pos="90" show="49" value="00000031"/>
      <field name="giop.target_address.key_addr" showname="Key Address: ....... ...D................RootPOA.............." size="49" pos="94" show="....... ...D................RootPOA.............." value="afabcb0000000020b50d0b4400000001000000000000000100000008526f6f74504f410000000008000000010000000014"/>
      <field name="giop.request_op_len" showname="Operation length: 4" size="4" pos="146" show="4" value="00000004"/>
      <field name="giop.request_op" showname="Request operation: add" size="4" pos="150" show="add" value="61646400"/>
      <field name="" show="ServiceContextList" size="46" pos="154" value="00000003000000110000000200027200000000010000000c0000000000010001000101094e454f00000000020014">
        <field name="giop.seqlen" showname="Sequence Length: 3" size="4" pos="154" show="3" value="00000003"/>
        <field name="giop.iiop.sc" showname="ServiceContext" size="10" pos="158" show="" value="">
          <field name="giop.iiop.sc.vscid" showname="0000 0000 0000 0000 0000 0000 .... .... = VSCID: 0x00000000" size="4" pos="158" show="0" value="0" unmaskedvalue="00000011"/>
          <field name="giop.iiop.sc.scid" showname=".... .... .... .... .... .... 0001 0001 = SCID: Unknown (0x00000011)" size="4" pos="158" show="17" value="11" unmaskedvalue="00000011"/>
          <field name="giop.seqlen" showname="Sequence Length: 2" size="4" pos="162" show="2" value="00000002"/>
          <field name="giop.endianness" showname="Endianness: Big Endian (0)" size="1" pos="166" show="0" value="00"/>
          <field name="giop.context_data" showname="Context Data: ." size="1" pos="167" show="." value="02"/>
        </field>
        <field name="giop.iiop.sc" showname="ServiceContext" size="20" pos="170" show="" value="">
          <field name="giop.iiop.sc.vscid" showname="0000 0000 0000 0000 0000 0000 .... .... = VSCID: 0x00000000" size="4" pos="170" show="0" value="0" unmaskedvalue="00000001"/>
          <field name="giop.iiop.sc.scid" showname=".... .... .... .... .... .... 0000 0001 = SCID: CodeSets (0x00000001)" size="4" pos="170" show="1" value="1" unmaskedvalue="00000001"/>
          <field name="giop.seqlen" showname="Sequence Length: 12" size="4" pos="174" show="12" value="0000000c"/>
          <field name="giop.endianness" showname="Endianness: Big Endian (0)" size="1" pos="178" show="0" value="00"/>
          <field name="giop.char_data" showname="char data: ISO_8859_1 (65537)" size="4" pos="182" show="65537" value="00010001"/>
          <field name="giop.wchar_data" showname="wchar data: ISO_UTF_16 (65801)" size="4" pos="186" show="65801" value="00010109"/>
        </field>
        <field name="giop.iiop.sc" showname="ServiceContext" size="10" pos="190" show="" value="">
          <field name="giop.iiop.sc.vscid" showname="0000 0000 0100 1110 0100 0101 .... .... = VSCID: 0x00004e45" size="4" pos="190" show="20037" value="4E45" unmaskedvalue="4e454f00"/>
          <field name="giop.iiop.sc.scid" showname=".... .... .... .... .... .... 0000 0000 = SCID: 0x00000000" size="4" pos="190" show="0" value="0" unmaskedvalue="4e454f00"/>
          <field name="giop.seqlen" showname="Sequence Length: 2" size="4" pos="194" show="2" value="00000002"/>
          <field name="giop.endianness" showname="Endianness: Big Endian (0)" size="1" pos="198" show="0" value="00"/>
          <field name="giop.context_data" showname="Context Data: ." size="1" pos="199" show="." value="14"/>
        </field>
      </field>
  </field>
</proto>
  <proto name="fake-field-wrapper">
    <field name="giop-addition.Request_Operation" showname="Request_Operation: add" size="0" pos="78" show="add"/>
</proto>
  <proto name="giop-addition" showname="Addition Dissector Using GIOP API" size="8" pos="202">
    <field name="giop-addition.Addition.add.a" showname="a: 10" size="4" pos="202" show="10" value="0000000a"/>
    <field name="giop-addition.Addition.add.b" showname="b: 10" size="4" pos="206" show="10" value="0000000a"/>
  </proto>
</packet>


<packet>
  <proto name="geninfo" pos="0" showname="General information" size="110">
    <field name="num" pos="0" show="5" showname="Number" value="5" size="110"/>
    <field name="len" pos="0" show="110" showname="Frame Length" value="6e" size="110"/>
    <field name="caplen" pos="0" show="110" showname="Captured Length" value="6e" size="110"/>
    <field name="timestamp" pos="0" show="Jul 22, 2015 11:46:00.587580000 UTC" showname="Captured Time" value="1437565560.587580000" size="110"/>
  </proto>
  <proto name="frame" showname="Frame 5: 110 bytes on wire (880 bits), 110 bytes captured (880 bits)" size="110" pos="0">
    <field name="frame.encap_type" showname="Encapsulation type: Ethernet (1)" size="0" pos="0" show="1"/>
    <field name="frame.time" showname="Arrival Time: Jul 22, 2015 11:46:00.587580000 UTC" size="0" pos="0" show="Jul 22, 2015 11:46:00.587580000 UTC"/>
    <field name="frame.offset_shift" showname="Time shift for this packet: 0.000000000 seconds" size="0" pos="0" show="0.000000000"/>
    <field name="frame.time_epoch" showname="Epoch Time: 1437565560.587580000 seconds" size="0" pos="0" show="1437565560.587580000"/>
    <field name="frame.time_delta" showname="Time delta from previous captured frame: 0.000813000 seconds" size="0" pos="0" show="0.000813000"/>
    <field name="frame.time_delta_displayed" showname="Time delta from previous displayed frame: 0.000813000 seconds" size="0" pos="0" show="0.000813000"/>
    <field name="frame.time_relative" showname="Time since reference or first frame: 5.088570000 seconds" size="0" pos="0" show="5.088570000"/>
    <field name="frame.number" showname="Frame Number: 5" size="0" pos="0" show="5"/>
    <field name="frame.len" showname="Frame Length: 110 bytes (880 bits)" size="0" pos="0" show="110"/>
    <field name="frame.cap_len" showname="Capture Length: 110 bytes (880 bits)" size="0" pos="0" show="110"/>
    <field name="frame.marked" showname="Frame is marked: False" size="0" pos="0" show="0"/>
    <field name="frame.ignored" showname="Frame is ignored: False" size="0" pos="0" show="0"/>
    <field name="frame.protocols" showname="Protocols in frame: eth:ethertype:ip:tcp:giop" size="0" pos="0" show="eth:ethertype:ip:tcp:giop"/>
  </proto>
  <proto name="eth" showname="Ethernet II, Src: 00:00:00_00:00:00 (00:00:00:00:00:00), Dst: 00:00:00_00:00:00 (00:00:00:00:00:00)" size="14" pos="0">
    <field name="eth.dst" showname="Destination: 00:00:00_00:00:00 (00:00:00:00:00:00)" size="6" pos="0" show="00:00:00:00:00:00" value="000000000000">
      <field name="eth.dst_resolved" showname="Destination (resolved): 00:00:00_00:00:00" hide="yes" size="6" pos="0" show="00:00:00_00:00:00" value="000000000000"/>
      <field name="eth.addr" showname="Address: 00:00:00_00:00:00 (00:00:00:00:00:00)" size="6" pos="0" show="00:00:00:00:00:00" value="000000000000"/>
      <field name="eth.addr_resolved" showname="Address (resolved): 00:00:00_00:00:00" hide="yes" size="6" pos="0" show="00:00:00_00:00:00" value="000000000000"/>
      <field name="eth.lg" showname=".... ..0. .... .... .... .... = LG bit: Globally unique address (factory default)" size="3" pos="0" show="0" value="0" unmaskedvalue="000000"/>
      <field name="eth.ig" showname=".... ...0 .... .... .... .... = IG bit: Individual address (unicast)" size="3" pos="0" show="0" value="0" unmaskedvalue="000000"/>
    </field>
    <field name="eth.src" showname="Source: 00:00:00_00:00:00 (00:00:00:00:00:00)" size="6" pos="6" show="00:00:00:00:00:00" value="000000000000">
      <field name="eth.src_resolved" showname="Source (resolved): 00:00:00_00:00:00" hide="yes" size="6" pos="6" show="00:00:00_00:00:00" value="000000000000"/>
      <field name="eth.addr" showname="Address: 00:00:00_00:00:00 (00:00:00:00:00:00)" size="6" pos="6" show="00:00:00:00:00:00" value="000000000000"/>
      <field name="eth.addr_resolved" showname="Address (resolved): 00:00:00_00:00:00" hide="yes" size="6" pos="6" show="00:00:00_00:00:00" value="000000000000"/>
      <field name="eth.lg" showname=".... ..0. .... .... .... .... = LG bit: Globally unique address (factory default)" size="3" pos="6" show="0" value="0" unmaskedvalue="000000"/>
      <field name="eth.ig" showname=".... ...0 .... .... .... .... = IG bit: Individual address (unicast)" size="3" pos="6" show="0" value="0" unmaskedvalue="000000"/>
    </field>
    <field name="eth.type" showname="Type: IP (0x0800)" size="2" pos="12" show="2048" value="0800"/>
  </proto>
  <proto name="ip" showname="Internet Protocol Version 4, Src: 10.0.2.15 (10.0.2.15), Dst: 10.0.2.15 (10.0.2.15)" size="20" pos="14">
    <field name="ip.version" showname="Version: 4" size="1" pos="14" show="4" value="45"/>
    <field name="ip.hdr_len" showname="Header Length: 20 bytes" size="1" pos="14" show="20" value="45"/>
    <field name="ip.dsfield" showname="Differentiated Services Field: 0x00 (DSCP 0x00: Default; ECN: 0x00: Not-ECT (Not ECN-Capable Transport))" size="1" pos="15" show="0" value="00">
      <field name="ip.dsfield.dscp" showname="0000 00.. = Differentiated Services Codepoint: Default (0x00)" size="1" pos="15" show="0" value="0" unmaskedvalue="00"/>
      <field name="ip.dsfield.ecn" showname=".... ..00 = Explicit Congestion Notification: Not-ECT (Not ECN-Capable Transport) (0x00)" size="1" pos="15" show="0" value="0" unmaskedvalue="00"/>
    </field>
    <field name="ip.len" showname="Total Length: 96" size="2" pos="16" show="96" value="0060"/>
    <field name="ip.id" showname="Identification: 0x6c4b (27723)" size="2" pos="18" show="27723" value="6c4b"/>
    <field name="ip.flags" showname="Flags: 0x02 (Don&apos;t Fragment)" size="1" pos="20" show="2" value="40">
      <field name="ip.flags.rb" showname="0... .... = Reserved bit: Not set" size="1" pos="20" show="0" value="40"/>
      <field name="ip.flags.df" showname=".1.. .... = Don&apos;t fragment: Set" size="1" pos="20" show="1" value="40"/>
      <field name="ip.flags.mf" showname="..0. .... = More fragments: Not set" size="1" pos="20" show="0" value="40"/>
    </field>
    <field name="ip.frag_offset" showname="Fragment offset: 0" size="2" pos="20" show="0" value="4000"/>
    <field name="ip.ttl" showname="Time to live: 64" size="1" pos="22" show="64" value="40"/>
    <field name="ip.proto" showname="Protocol: TCP (6)" size="1" pos="23" show="6" value="06"/>
    <field name="ip.checksum" showname="Header checksum: 0xb62f [validation disabled]" size="2" pos="24" show="46639" value="b62f">
      <field name="ip.checksum_good" showname="Good: False" size="2" pos="24" show="0" value="b62f"/>
      <field name="ip.checksum_bad" showname="Bad: False" size="2" pos="24" show="0" value="b62f"/>
    </field>
    <field name="ip.src" showname="Source: 10.0.2.15 (10.0.2.15)" size="4" pos="26" show="10.0.2.15" value="0a00020f"/>
    <field name="ip.addr" showname="Source or Destination Address: 10.0.2.15 (10.0.2.15)" hide="yes" size="4" pos="26" show="10.0.2.15" value="0a00020f"/>
    <field name="ip.src_host" showname="Source Host: 10.0.2.15" hide="yes" size="4" pos="26" show="10.0.2.15" value="0a00020f"/>
    <field name="ip.host" showname="Source or Destination Host: 10.0.2.15" hide="yes" size="4" pos="26" show="10.0.2.15" value="0a00020f"/>
    <field name="ip.dst" showname="Destination: 10.0.2.15 (10.0.2.15)" size="4" pos="30" show="10.0.2.15" value="0a00020f"/>
    <field name="ip.addr" showname="Source or Destination Address: 10.0.2.15 (10.0.2.15)" hide="yes" size="4" pos="30" show="10.0.2.15" value="0a00020f"/>
    <field name="ip.dst_host" showname="Destination Host: 10.0.2.15" hide="yes" size="4" pos="30" show="10.0.2.15" value="0a00020f"/>
    <field name="ip.host" showname="Source or Destination Host: 10.0.2.15" hide="yes" size="4" pos="30" show="10.0.2.15" value="0a00020f"/>
  </proto>
  <proto name="tcp" showname="Transmission Control Protocol, Src Port: 46420 (46420), Dst Port: 53953 (53953), Seq: 45, Ack: 289, Len: 44" size="32" pos="34">
    <field name="tcp.srcport" showname="Source Port: 46420 (46420)" size="2" pos="34" show="46420" value="b554"/>
    <field name="tcp.dstport" showname="Destination Port: 53953 (53953)" size="2" pos="36" show="53953" value="d2c1"/>
    <field name="tcp.port" showname="Source or Destination Port: 46420" hide="yes" size="2" pos="34" show="46420" value="b554"/>
    <field name="tcp.port" showname="Source or Destination Port: 53953" hide="yes" size="2" pos="36" show="53953" value="d2c1"/>
    <field name="tcp.stream" showname="Stream index: 0" size="0" pos="34" show="0"/>
    <field name="tcp.len" showname="TCP Segment Len: 44" size="1" pos="46" show="44" value="80"/>
    <field name="tcp.seq" showname="Sequence number: 45    (relative sequence number)" size="4" pos="38" show="45" value="cda034fc"/>
    <field name="tcp.nxtseq" showname="Next sequence number: 89    (relative sequence number)" size="0" pos="34" show="89"/>
    <field name="tcp.ack" showname="Acknowledgment number: 289    (relative ack number)" size="4" pos="42" show="289" value="54de0776"/>
    <field name="tcp.hdr_len" showname="Header Length: 32 bytes" size="1" pos="46" show="32" value="80"/>
    <field name="tcp.flags" showname=".... 0000 0001 1000 = Flags: 0x018 (PSH, ACK)" size="2" pos="46" show="24" value="18" unmaskedvalue="8018">
      <field name="tcp.flags.res" showname="000. .... .... = Reserved: Not set" size="1" pos="46" show="0" value="0" unmaskedvalue="80"/>
      <field name="tcp.flags.ns" showname="...0 .... .... = Nonce: Not set" size="1" pos="46" show="0" value="0" unmaskedvalue="80"/>
      <field name="tcp.flags.cwr" showname=".... 0... .... = Congestion Window Reduced (CWR): Not set" size="1" pos="47" show="0" value="0" unmaskedvalue="18"/>
      <field name="tcp.flags.ecn" showname=".... .0.. .... = ECN-Echo: Not set" size="1" pos="47" show="0" value="0" unmaskedvalue="18"/>
      <field name="tcp.flags.urg" showname=".... ..0. .... = Urgent: Not set" size="1" pos="47" show="0" value="0" unmaskedvalue="18"/>
      <field name="tcp.flags.ack" showname=".... ...1 .... = Acknowledgment: Set" size="1" pos="47" show="1" value="1" unmaskedvalue="18"/>
      <field name="tcp.flags.push" showname=".... .... 1... = Push: Set" size="1" pos="47" show="1" value="1" unmaskedvalue="18"/>
      <field name="tcp.flags.reset" showname=".... .... .0.. = Reset: Not set" size="1" pos="47" show="0" value="0" unmaskedvalue="18"/>
      <field name="tcp.flags.syn" showname=".... .... ..0. = Syn: Not set" size="1" pos="47" show="0" value="0" unmaskedvalue="18"/>
      <field name="tcp.flags.fin" showname=".... .... ...0 = Fin: Not set" size="1" pos="47" show="0" value="0" unmaskedvalue="18"/>
    </field>
    <field name="tcp.window_size_value" showname="Window size value: 375" size="2" pos="48" show="375" value="0177"/>
    <field name="tcp.window_size" showname="Calculated window size: 375" size="2" pos="48" show="375" value="0177"/>
    <field name="tcp.window_size_scalefactor" showname="Window size scaling factor: -1 (unknown)" size="2" pos="48" show="-1" value="0177"/>
    <field name="tcp.checksum" showname="Checksum: 0x1870 [validation disabled]" size="2" pos="50" show="6256" value="1870">
      <field name="tcp.checksum_good" showname="Good Checksum: False" size="2" pos="50" show="0" value="1870"/>
      <field name="tcp.checksum_bad" showname="Bad Checksum: False" size="2" pos="50" show="0" value="1870"/>
    </field>
    <field name="tcp.urgent_pointer" showname="Urgent pointer: 0" size="2" pos="52" show="0" value="0000"/>
    <field name="tcp.options" showname="Options: (12 bytes), No-Operation (NOP), No-Operation (NOP), Timestamps" size="12" pos="54" show="01:01:08:0a:00:36:7d:f8:00:36:7d:f8" value="0101080a00367df800367df8">
      <field name="" show="No-Operation (NOP)" size="1" pos="54" value="01">
        <field name="tcp.options.type" showname="Type: 1" size="1" pos="54" show="1" value="01">
          <field name="tcp.options.type.copy" showname="0... .... = Copy on fragmentation: No" size="1" pos="54" show="0" value="0" unmaskedvalue="01"/>
          <field name="tcp.options.type.class" showname=".00. .... = Class: Control (0)" size="1" pos="54" show="0" value="0" unmaskedvalue="01"/>
          <field name="tcp.options.type.number" showname="...0 0001 = Number: No-Operation (NOP) (1)" size="1" pos="54" show="1" value="1" unmaskedvalue="01"/>
        </field>
      </field>
      <field name="" show="No-Operation (NOP)" size="1" pos="55" value="01">
        <field name="tcp.options.type" showname="Type: 1" size="1" pos="55" show="1" value="01">
          <field name="tcp.options.type.copy" showname="0... .... = Copy on fragmentation: No" size="1" pos="55" show="0" value="0" unmaskedvalue="01"/>
          <field name="tcp.options.type.class" showname=".00. .... = Class: Control (0)" size="1" pos="55" show="0" value="0" unmaskedvalue="01"/>
          <field name="tcp.options.type.number" showname="...0 0001 = Number: No-Operation (NOP) (1)" size="1" pos="55" show="1" value="1" unmaskedvalue="01"/>
        </field>
      </field>
      <field name="" show="Timestamps: TSval 3571192, TSecr 3571192" size="10" pos="56" value="080a00367df800367df8">
        <field name="tcp.option_kind" showname="Kind: Time Stamp Option (8)" size="1" pos="56" show="8" value="08"/>
        <field name="tcp.option_len" showname="Length: 10" size="1" pos="57" show="10" value="0a"/>
        <field name="tcp.options.timestamp.tsval" showname="Timestamp value: 3571192" size="4" pos="58" show="3571192" value="00367df8"/>
        <field name="tcp.options.timestamp.tsecr" showname="Timestamp echo reply: 3571192" size="4" pos="62" show="3571192" value="00367df8"/>
      </field>
    </field>
    <field name="tcp.analysis" showname="SEQ/ACK analysis" size="0" pos="34" show="" value="">
      <field name="tcp.analysis.acks_frame" showname="This is an ACK to the segment in frame: 4" size="0" pos="34" show="4"/>
      <field name="tcp.analysis.ack_rtt" showname="The RTT to ACK the segment was: 0.000813000 seconds" size="0" pos="34" show="0.000813000"/>
      <field name="tcp.analysis.bytes_in_flight" showname="Bytes in flight: 44" size="0" pos="34" show="44"/>
    </field>
    <field name="tcp.pdu.size" showname="PDU Size: 44" size="44" pos="66" show="44" value="47494f5001020001000000200000000800000000000000014e454f0000000002001400c40000000600000014"/>
  </proto>
  <proto name="giop" showname="General Inter-ORB Protocol" size="44" pos="66">
    <field name="" show="GIOP Header" size="12" pos="66" value="47494f500102000100000020">
      <field name="giop.magic" showname="Magic: GIOP" size="4" pos="66" show="GIOP" value="47494f50"/>
      <field name="" show="Version: 1.2" size="2" pos="70" value="0102">
        <field name="giop.major_version" showname="Major Version: 1" size="1" pos="70" show="1" value="01"/>
        <field name="giop.minor_version" showname="Minor Version: 2" size="1" pos="71" show="2" value="02"/>
        <field name="giop.flags" showname="Message Flags: 0x00, (Big Endian)" size="1" pos="72" show="0" value="00">
          <field name="giop.flags.ziop_enabled" showname=".... 0... = ZIOP Enabled: False" size="1" pos="72" show="0" value="0" unmaskedvalue="00"/>
          <field name="giop.flags.ziop_supported" showname=".... .0.. = ZIOP Supported: False" size="1" pos="72" show="0" value="0" unmaskedvalue="00"/>
          <field name="giop.flags.fragment" showname=".... ..0. = Fragment: False" size="1" pos="72" show="0" value="0" unmaskedvalue="00"/>
          <field name="giop.flags.little_endian" showname=".... ...0 = Little Endian: False" size="1" pos="72" show="0" value="0" unmaskedvalue="00"/>
        </field>
      </field>
      <field name="giop.type" showname="Message type: Reply (1)" size="1" pos="73" show="1" value="01"/>
      <field name="giop.len" showname="Message size: 32" size="4" pos="74" show="32" value="00000020"/>
    </field>
  </proto>
  <proto name="fake-field-wrapper">
    <field name="" show="General Inter-ORB Protocol Reply" size="32" pos="78" value="0000000800000000000000014e454f0000000002001400c40000000600000014">
      <field name="giop.request_id" showname="Request id: 8" size="4" pos="78" show="8" value="00000008"/>
      <field name="giop.replystatus" showname="Reply status: No Exception (0)" size="4" pos="82" show="0" value="00000000"/>
      <field name="" show="ServiceContextList" size="14" pos="86" value="000000014e454f00000000020014">
        <field name="giop.seqlen" showname="Sequence Length: 1" size="4" pos="86" show="1" value="00000001"/>
        <field name="giop.iiop.sc" showname="ServiceContext" size="10" pos="90" show="" value="">
          <field name="giop.iiop.sc.vscid" showname="0000 0000 0100 1110 0100 0101 .... .... = VSCID: 0x00004e45" size="4" pos="90" show="20037" value="4E45" unmaskedvalue="4e454f00"/>
          <field name="giop.iiop.sc.scid" showname=".... .... .... .... .... .... 0000 0000 = SCID: 0x00000000" size="4" pos="90" show="0" value="0" unmaskedvalue="4e454f00"/>
          <field name="giop.seqlen" showname="Sequence Length: 2" size="4" pos="94" show="2" value="00000002"/>
          <field name="giop.endianness" showname="Endianness: Big Endian (0)" size="1" pos="98" show="0" value="00"/>
          <field name="giop.context_data" showname="Context Data: ." size="1" pos="99" show="." value="14"/>
        </field>
      </field>
  </field>
</proto>
  <proto name="fake-field-wrapper">
    <field name="giop-addition.Request_Operation" showname="Request_Operation: add" size="0" pos="78" show="add"/>
</proto>
  <proto name="giop-addition" showname="Addition Dissector Using GIOP API" size="4" pos="106">
    <field name="giop-addition.Addition.add.return" showname="Return value: 20" size="4" pos="106" show="20" value="00000014"/>
  </proto>
</packet>


</pdml>
